target datalayout = "e-m:e-p270:32:32-p271:32:32-p272:64:64-i64:64-i128:128-f80:128-n8:16:32:64-S128"
target triple = "x86_64-unknown-linux-gnu"

%"class.std::vector.76" = type { %"struct.std::_Vector_base.77" }
%"struct.std::_Vector_base.77" = type { %"struct.std::_Vector_base<aiVector2t<float>, std::allocator<aiVector2t<float>>>::_Vector_impl" }
%"struct.std::_Vector_base<aiVector2t<float>, std::allocator<aiVector2t<float>>>::_Vector_impl" = type { %"struct.std::_Vector_base<aiVector2t<float>, std::allocator<aiVector2t<float>>>::_Vector_impl_data" }
%"struct.std::_Vector_base<aiVector2t<float>, std::allocator<aiVector2t<float>>>::_Vector_impl_data" = type { ptr, ptr, ptr }
%"class.std::vector.81" = type { %"struct.std::_Vector_base.82" }
%"struct.std::_Vector_base.82" = type { %"struct.std::_Vector_base<aiColor4t<float>, std::allocator<aiColor4t<float>>>::_Vector_impl" }
%"struct.std::_Vector_base<aiColor4t<float>, std::allocator<aiColor4t<float>>>::_Vector_impl" = type { %"struct.std::_Vector_base<aiColor4t<float>, std::allocator<aiColor4t<float>>>::_Vector_impl_data" }
%"struct.std::_Vector_base<aiColor4t<float>, std::allocator<aiColor4t<float>>>::_Vector_impl_data" = type { ptr, ptr, ptr }
%"class.Assimp::FBX::Geometry" = type { %"class.Assimp::FBX::Object", ptr, %"class.std::unordered_set" }
%"class.Assimp::FBX::Object" = type { ptr, ptr, %"class.std::__cxx11::basic_string", i64 }
%"class.std::__cxx11::basic_string" = type { %"struct.std::__cxx11::basic_string<char>::_Alloc_hider", i64, %union.anon }
%"struct.std::__cxx11::basic_string<char>::_Alloc_hider" = type { ptr }
%union.anon = type { i64, [8 x i8] }
%"class.std::unordered_set" = type { %"class.std::_Hashtable" }
%"class.std::_Hashtable" = type { ptr, i64, %"struct.std::__detail::_Hash_node_base", i64, %"struct.std::__detail::_Prime_rehash_policy", ptr }
%"struct.std::__detail::_Hash_node_base" = type { ptr }
%"struct.std::__detail::_Prime_rehash_policy" = type { float, i64 }
%"class.std::vector.66" = type { %"struct.std::_Vector_base.67" }
%"struct.std::_Vector_base.67" = type { %"struct.std::_Vector_base<aiVector3t<float>, std::allocator<aiVector3t<float>>>::_Vector_impl" }
%"struct.std::_Vector_base<aiVector3t<float>, std::allocator<aiVector3t<float>>>::_Vector_impl" = type { %"struct.std::_Vector_base<aiVector3t<float>, std::allocator<aiVector3t<float>>>::_Vector_impl_data" }
%"struct.std::_Vector_base<aiVector3t<float>, std::allocator<aiVector3t<float>>>::_Vector_impl_data" = type { ptr, ptr, ptr }
%"class.std::vector.61" = type { %"struct.std::_Vector_base.62" }
%"struct.std::_Vector_base.62" = type { %"struct.std::_Vector_base<int, std::allocator<int>>::_Vector_impl" }
%"struct.std::_Vector_base<int, std::allocator<int>>::_Vector_impl" = type { %"struct.std::_Vector_base<int, std::allocator<int>>::_Vector_impl_data" }
%"struct.std::_Vector_base<int, std::allocator<int>>::_Vector_impl_data" = type { ptr, ptr, ptr }
%"class.Assimp::FBX::MeshGeometry" = type { %"class.Assimp::FBX::Geometry", %"class.std::vector.61", %"class.std::vector.66", %"class.std::vector.71", %"class.std::vector.71", %"class.std::vector.66", %"class.std::vector.66", %"class.std::vector.66", [8 x %"class.std::__cxx11::basic_string"], [8 x %"class.std::vector.76"], [8 x %"class.std::vector.81"], %"class.std::vector.71", %"class.std::vector.71", %"class.std::vector.71" }
%"class.std::vector.71" = type { %"struct.std::_Vector_base.72" }
%"struct.std::_Vector_base.72" = type { %"struct.std::_Vector_base<unsigned int, std::allocator<unsigned int>>::_Vector_impl" }
%"struct.std::_Vector_base<unsigned int, std::allocator<unsigned int>>::_Vector_impl" = type { %"struct.std::_Vector_base<unsigned int, std::allocator<unsigned int>>::_Vector_impl_data" }
%"struct.std::_Vector_base<unsigned int, std::allocator<unsigned int>>::_Vector_impl_data" = type { ptr, ptr, ptr }

@_ZZNK6Assimp3FBX12MeshGeometry16GetTextureCoordsEjE5empty = internal global %"class.std::vector.76" zeroinitializer, align 8
@_ZGVZNK6Assimp3FBX12MeshGeometry16GetTextureCoordsEjE5empty = internal global i64 0, align 8
@__dso_handle = external hidden global i8

; Function Attrs: mustprogress nounwind uwtable
define linkonce_odr hidden void @_ZNSt15__new_allocatorI10aiVector2tIfEEC2Ev(ptr noundef nonnull align 1 dereferenceable(1) %this) unnamed_addr #0 comdat align 2 {
entry:
  %this.addr = alloca ptr, align 8
  store ptr %this, ptr %this.addr, align 8
  ret void
}

; Function Attrs: mustprogress nounwind uwtable
define linkonce_odr hidden void @_ZNSt12_Vector_baseI10aiVector2tIfESaIS1_EE17_Vector_impl_dataC2Ev(ptr noundef nonnull align 8 dereferenceable(24) %this) unnamed_addr #0 comdat align 2 {
entry:
  %this.addr = alloca ptr, align 8
  store ptr %this, ptr %this.addr, align 8
  %this1 = load ptr, ptr %this.addr, align 8
  %_M_start = getelementptr inbounds %"struct.std::_Vector_base<aiVector2t<float>, std::allocator<aiVector2t<float>>>::_Vector_impl_data", ptr %this1, i32 0, i32 0
  store ptr null, ptr %_M_start, align 8
  %_M_finish = getelementptr inbounds %"struct.std::_Vector_base<aiVector2t<float>, std::allocator<aiVector2t<float>>>::_Vector_impl_data", ptr %this1, i32 0, i32 1
  store ptr null, ptr %_M_finish, align 8
  %_M_end_of_storage = getelementptr inbounds %"struct.std::_Vector_base<aiVector2t<float>, std::allocator<aiVector2t<float>>>::_Vector_impl_data", ptr %this1, i32 0, i32 2
  store ptr null, ptr %_M_end_of_storage, align 8
  ret void
}

; Function Attrs: mustprogress nounwind uwtable
define linkonce_odr hidden void @_ZNSaI10aiVector2tIfEEC2Ev(ptr noundef nonnull align 1 dereferenceable(1) %this) unnamed_addr #0 comdat align 2 {
entry:
  %this.addr = alloca ptr, align 8
  store ptr %this, ptr %this.addr, align 8
  %this1 = load ptr, ptr %this.addr, align 8
  call void @_ZNSt15__new_allocatorI10aiVector2tIfEEC2Ev(ptr noundef nonnull align 1 dereferenceable(1) %this1) #7
  ret void
}

; Function Attrs: mustprogress nounwind uwtable
define linkonce_odr hidden void @_ZNSt12_Vector_baseI10aiVector2tIfESaIS1_EE12_Vector_implC2Ev(ptr noundef nonnull align 8 dereferenceable(24) %this) unnamed_addr #0 comdat align 2 {
entry:
  %this.addr = alloca ptr, align 8
  store ptr %this, ptr %this.addr, align 8
  %this1 = load ptr, ptr %this.addr, align 8
  call void @_ZNSaI10aiVector2tIfEEC2Ev(ptr noundef nonnull align 1 dereferenceable(1) %this1) #7
  call void @_ZNSt12_Vector_baseI10aiVector2tIfESaIS1_EE17_Vector_impl_dataC2Ev(ptr noundef nonnull align 8 dereferenceable(24) %this1) #7
  ret void
}

; Function Attrs: mustprogress nounwind uwtable
define linkonce_odr hidden void @_ZNSt12_Vector_baseI10aiVector2tIfESaIS1_EEC2Ev(ptr noundef nonnull align 8 dereferenceable(24) %this) unnamed_addr #0 comdat align 2 {
entry:
  %this.addr = alloca ptr, align 8
  store ptr %this, ptr %this.addr, align 8
  %this1 = load ptr, ptr %this.addr, align 8
  %_M_impl = getelementptr inbounds %"struct.std::_Vector_base.77", ptr %this1, i32 0, i32 0
  call void @_ZNSt12_Vector_baseI10aiVector2tIfESaIS1_EE12_Vector_implC2Ev(ptr noundef nonnull align 8 dereferenceable(24) %_M_impl) #7
  ret void
}

; Function Attrs: mustprogress nounwind uwtable
define linkonce_odr hidden void @_ZNSt6vectorI10aiVector2tIfESaIS1_EEC2Ev(ptr noundef nonnull align 8 dereferenceable(24) %this) unnamed_addr #0 comdat align 2 {
entry:
  %this.addr = alloca ptr, align 8
  store ptr %this, ptr %this.addr, align 8
  %this1 = load ptr, ptr %this.addr, align 8
  call void @_ZNSt12_Vector_baseI10aiVector2tIfESaIS1_EEC2Ev(ptr noundef nonnull align 8 dereferenceable(24) %this1) #7
  ret void
}

; Function Attrs: mustprogress nounwind uwtable
define hidden noundef nonnull align 8 dereferenceable(24) ptr @_ZNK6Assimp3FBX12MeshGeometry16GetTextureCoordsEj(ptr noundef nonnull align 8 dereferenceable(1000) %this, i32 noundef %index) #0 align 2 {
entry:
  %this.addr = alloca ptr, align 8
  %index.addr = alloca i32, align 4
  store ptr %this, ptr %this.addr, align 8
  store i32 %index, ptr %index.addr, align 4
  %this1 = load ptr, ptr %this.addr, align 8
  %0 = load atomic i8, ptr @_ZGVZNK6Assimp3FBX12MeshGeometry16GetTextureCoordsEjE5empty acquire, align 8
  %guard.uninitialized = icmp eq i8 %0, 0
  br i1 %guard.uninitialized, label %init.check, label %init.end, !prof !8

init.check:                                       ; preds = %entry
  %1 = call i32 @__cxa_guard_acquire(ptr @_ZGVZNK6Assimp3FBX12MeshGeometry16GetTextureCoordsEjE5empty) #7
  %tobool = icmp ne i32 %1, 0
  br i1 %tobool, label %init, label %init.end

init:                                             ; preds = %init.check
  call void @_ZNSt6vectorI10aiVector2tIfESaIS1_EEC2Ev(ptr noundef nonnull align 8 dereferenceable(24) @_ZZNK6Assimp3FBX12MeshGeometry16GetTextureCoordsEjE5empty) #7
  %2 = call i32 @__cxa_atexit(ptr @_ZNSt6vectorI10aiVector2tIfESaIS1_EED2Ev, ptr @_ZZNK6Assimp3FBX12MeshGeometry16GetTextureCoordsEjE5empty, ptr @__dso_handle) #7
  call void @__cxa_guard_release(ptr @_ZGVZNK6Assimp3FBX12MeshGeometry16GetTextureCoordsEjE5empty) #7
  br label %init.end

init.end:                                         ; preds = %init, %init.check, %entry
  %3 = load i32, ptr %index.addr, align 4
  %cmp = icmp uge i32 %3, 8
  br i1 %cmp, label %cond.true, label %cond.false

cond.true:                                        ; preds = %init.end
  br label %cond.end

cond.false:                                       ; preds = %init.end
  %m_uvs = getelementptr inbounds %"class.Assimp::FBX::MeshGeometry", ptr %this1, i32 0, i32 9
  %4 = load i32, ptr %index.addr, align 4
  %idxprom = zext i32 %4 to i64
  %arrayidx = getelementptr inbounds [8 x %"class.std::vector.76"], ptr %m_uvs, i64 0, i64 %idxprom
  br label %cond.end

cond.end:                                         ; preds = %cond.false, %cond.true
  %cond-lvalue = phi ptr [ @_ZZNK6Assimp3FBX12MeshGeometry16GetTextureCoordsEjE5empty, %cond.true ], [ %arrayidx, %cond.false ]
  ret ptr %cond-lvalue
}